target datalayout = "e-m:e-p270:32:32-p271:32:32-p272:64:64-i64:64-i128:128-f80:128-n8:16:32:64-S128"
target triple = "x86_64-pc-linux-gnu"

%struct.ml_dsa_gen_ctx = type { ptr, ptr, [32 x i8], i64 }

@.str.3 = private unnamed_addr constant [60 x i8] c"../openssl/providers/implementations/keymgmt/ml_dsa_kmgmt.c\00", align 1

; Function Attrs: nounwind uwtable
define internal void @ml_dsa_gen_cleanup(ptr noundef %0) #0 {
  %2 = alloca ptr, align 8
  %3 = alloca ptr, align 8
  store ptr %0, ptr %2, align 8, !tbaa !3
  call void @llvm.lifetime.start.p0(i64 8, ptr %3) #5
  %4 = load ptr, ptr %2, align 8, !tbaa !3
  store ptr %4, ptr %3, align 8, !tbaa !18
  %5 = load ptr, ptr %3, align 8, !tbaa !18
  %6 = getelementptr inbounds nuw %struct.ml_dsa_gen_ctx, ptr %5, i32 0, i32 2
  %7 = getelementptr inbounds [32 x i8], ptr %6, i64 0, i64 0
  %8 = load ptr, ptr %3, align 8, !tbaa !18
  %9 = getelementptr inbounds nuw %struct.ml_dsa_gen_ctx, ptr %8, i32 0, i32 3
  %10 = load i64, ptr %9, align 8, !tbaa !23
  call void @OPENSSL_cleanse(ptr noundef %7, i64 noundef %10)
  %11 = load ptr, ptr %3, align 8, !tbaa !18
  %12 = getelementptr inbounds nuw %struct.ml_dsa_gen_ctx, ptr %11, i32 0, i32 1
  %13 = load ptr, ptr %12, align 8, !tbaa !24
  call void @CRYPTO_free(ptr noundef %13, ptr noundef @.str.3, i32 noundef 497)
  %14 = load ptr, ptr %3, align 8, !tbaa !18
  call void @CRYPTO_free(ptr noundef %14, ptr noundef @.str.3, i32 noundef 498)
  call void @llvm.lifetime.end.p0(i64 8, ptr %3) #5
  ret void
}