; Function Attrs: nounwind uwtable
define internal void @ml_dsa_gen_cleanup(ptr noundef %0) #0 {
  %2 = getelementptr inbounds nuw i8, ptr %0, i64 16
  %3 = getelementptr inbounds nuw i8, ptr %0, i64 48
  %4 = load i64, ptr %3, align 8, !tbaa !23
  tail call void @OPENSSL_cleanse(ptr noundef nonnull %2, i64 noundef %4) #6
  %5 = getelementptr inbounds nuw i8, ptr %0, i64 8
  %6 = load ptr, ptr %5, align 8, !tbaa !24
  tail call void @CRYPTO_free(ptr noundef %6, ptr noundef nonnull @.str.3, i32 noundef 497) #6
  tail call void @CRYPTO_free(ptr noundef %0, ptr noundef nonnull @.str.3, i32 noundef 498) #6
  ret void
}